target datalayout = "e-m:e-p270:32:32-p271:32:32-p272:64:64-i64:64-i128:128-f80:128-n8:16:32:64-S128"
target triple = "x86_64-pc-linux-gnu"

%struct.darktable_t = type { %struct.dt_codepath_t, i32, i32, ptr, ptr, ptr, ptr, ptr, ptr, ptr, ptr, ptr, ptr, ptr, ptr, ptr, ptr, ptr, ptr, ptr, ptr, ptr, ptr, ptr, ptr, ptr, ptr, ptr, ptr, ptr, [64 x %struct.dt_pthread_mutex_t], %struct.dt_pthread_mutex_t, %struct.dt_pthread_mutex_t, %struct.dt_pthread_mutex_t, %struct.dt_pthread_mutex_t, %struct.dt_pthread_mutex_t, ptr, ptr, ptr, ptr, ptr, ptr, ptr, ptr, ptr, ptr, ptr, ptr, ptr, %struct.dt_lua_state_t, ptr, double, ptr, i32, [47 x i32], i32, i32, ptr, ptr, %struct.dt_sys_resources_t, %struct.dt_backthumb_t, %struct.dt_gimp_t }
%struct.dt_codepath_t = type { i8, [3 x i8] }
%struct.dt_pthread_mutex_t = type { %union.pthread_mutex_t }
%union.pthread_mutex_t = type { %struct.__pthread_mutex_s }
%struct.__pthread_mutex_s = type { i32, i32, i32, i32, i32, i16, i16, %struct.__pthread_internal_list }
%struct.__pthread_internal_list = type { ptr, ptr }
%struct.dt_lua_state_t = type { i32 }
%struct.dt_sys_resources_t = type { i64, i64, ptr, ptr, i32 }
%struct.dt_backthumb_t = type { double, double, i32, i32, i32, i32 }
%struct.dt_gimp_t = type { i32, ptr, ptr, i32, i32 }
%struct.dt_camctl_t = type { %struct.dt_pthread_mutex_t, %struct.dt_pthread_mutex_t, i64, ptr, ptr, ptr, ptr, ptr, ptr, ptr, ptr, i32, i32, i32 }
%struct.dt_camera_t = type { ptr, ptr, %struct.CameraText, ptr, ptr, %struct.dt_pthread_mutex_t, i32, i32, i32, i32, i32, i32, i32, i32, i32, ptr, %struct.dt_pthread_mutex_t, ptr, %struct.anon, ptr, ptr, i32, i32, i32, i32, ptr, i32, i32, i32, i32, i32, i32, i32, i32, i64, %struct.dt_pthread_mutex_t, %struct.dt_pthread_mutex_t }
%struct.CameraText = type { [32768 x i8] }
%struct.anon = type { ptr, i32 }
%struct._camctl_camera_job_t = type { i32 }

@darktable = external global %struct.darktable_t, align 8
@.str.36 = private unnamed_addr constant [61 x i8] c"[camera_control] Failed to capture from camera, camera==NULL\00", align 1

; Function Attrs: inlinehint nounwind uwtable
define internal i32 @dt_pthread_mutex_unlock(ptr noundef %0) #4 {
  %2 = alloca ptr, align 8
  store ptr %0, ptr %2, align 8, !tbaa !91
  %3 = load ptr, ptr %2, align 8, !tbaa !91
  %4 = getelementptr inbounds nuw %struct.dt_pthread_mutex_t, ptr %3, i32 0, i32 0
  %5 = call i32 @pthread_mutex_unlock(ptr noundef %4) #10
  ret i32 %5
}

; Function Attrs: inlinehint nounwind uwtable
define internal i32 @dt_pthread_mutex_lock(ptr noundef %0) #4 {
  %2 = alloca ptr, align 8
  store ptr %0, ptr %2, align 8, !tbaa !91
  %3 = load ptr, ptr %2, align 8, !tbaa !91
  %4 = getelementptr inbounds nuw %struct.dt_pthread_mutex_t, ptr %3, i32 0, i32 0
  %5 = call i32 @pthread_mutex_lock(ptr noundef %4) #10
  ret i32 %5
}

; Function Attrs: nounwind uwtable
define internal void @_camera_add_job(ptr noundef %0, ptr noundef %1, ptr noundef %2) #0 {
  %4 = alloca ptr, align 8
  %5 = alloca ptr, align 8
  %6 = alloca ptr, align 8
  %7 = alloca ptr, align 8
  store ptr %0, ptr %4, align 8, !tbaa !6
  store ptr %1, ptr %5, align 8, !tbaa !21
  store ptr %2, ptr %6, align 8, !tbaa !72
  call void @llvm.lifetime.start.p0(i64 8, ptr %7) #10
  %8 = load ptr, ptr %5, align 8, !tbaa !21
  store ptr %8, ptr %7, align 8, !tbaa !21
  %9 = load ptr, ptr %7, align 8, !tbaa !21
  %10 = getelementptr inbounds nuw %struct.dt_camera_t, ptr %9, i32 0, i32 16
  %11 = call i32 @dt_pthread_mutex_lock(ptr noundef %10)
  %12 = load ptr, ptr %7, align 8, !tbaa !21
  %13 = getelementptr inbounds nuw %struct.dt_camera_t, ptr %12, i32 0, i32 17
  %14 = load ptr, ptr %13, align 8, !tbaa !164
  %15 = load ptr, ptr %6, align 8, !tbaa !72
  %16 = call ptr @g_list_append(ptr noundef %14, ptr noundef %15)
  %17 = load ptr, ptr %7, align 8, !tbaa !21
  %18 = getelementptr inbounds nuw %struct.dt_camera_t, ptr %17, i32 0, i32 17
  store ptr %16, ptr %18, align 8, !tbaa !164
  %19 = load ptr, ptr %7, align 8, !tbaa !21
  %20 = getelementptr inbounds nuw %struct.dt_camera_t, ptr %19, i32 0, i32 16
  %21 = call i32 @dt_pthread_mutex_unlock(ptr noundef %20)
  call void @llvm.lifetime.end.p0(i64 8, ptr %7) #10
  ret void
}

; Function Attrs: nounwind uwtable
define void @dt_camctl_camera_capture(ptr noundef %0, ptr noundef %1) #0 {
  %3 = alloca ptr, align 8
  %4 = alloca ptr, align 8
  %5 = alloca ptr, align 8
  %6 = alloca i32, align 4
  %7 = alloca ptr, align 8
  %8 = alloca ptr, align 8
  store ptr %0, ptr %3, align 8, !tbaa !6
  store ptr %1, ptr %4, align 8, !tbaa !21
  call void @llvm.lifetime.start.p0(i64 8, ptr %5) #10
  %9 = load ptr, ptr %3, align 8, !tbaa !6
  store ptr %9, ptr %5, align 8, !tbaa !6
  %10 = load ptr, ptr %4, align 8, !tbaa !21
  %11 = icmp ne ptr %10, null
  br i1 %11, label %31, label %12

12:                                               ; preds = %2
  %13 = load ptr, ptr %5, align 8, !tbaa !6
  %14 = getelementptr inbounds nuw %struct.dt_camctl_t, ptr %13, i32 0, i32 10
  %15 = load ptr, ptr %14, align 8, !tbaa !11
  store ptr %15, ptr %4, align 8, !tbaa !21
  %16 = icmp eq ptr %15, null
  br i1 %16, label %17, label %31

17:                                               ; preds = %12
  br label %18

18:                                               ; preds = %17
  %19 = load i32, ptr getelementptr inbounds nuw (%struct.darktable_t, ptr @darktable, i32 0, i32 2), align 8, !tbaa !22
  %20 = and i32 32, %19
  %21 = icmp ne i32 %20, 0
  br i1 %21, label %22, label %28

22:                                               ; preds = %18
  %23 = load i32, ptr getelementptr inbounds nuw (%struct.darktable_t, ptr @darktable, i32 0, i32 2), align 8, !tbaa !22
  %24 = xor i32 %23, -1
  %25 = and i32 0, %24
  %26 = icmp ne i32 %25, 0
  br i1 %26, label %28, label %27

27:                                               ; preds = %22
  call void (ptr, ...) @dt_print_ext(ptr noundef @.str.36)
  br label %28

28:                                               ; preds = %27, %22, %18
  br label %29

29:                                               ; preds = %28
  br label %30

30:                                               ; preds = %29
  store i32 1, ptr %6, align 4
  br label %39

31:                                               ; preds = %12, %2
  call void @llvm.lifetime.start.p0(i64 8, ptr %7) #10
  %32 = load ptr, ptr %4, align 8, !tbaa !21
  store ptr %32, ptr %7, align 8, !tbaa !21
  call void @llvm.lifetime.start.p0(i64 8, ptr %8) #10
  %33 = call noalias ptr @g_malloc(i64 noundef 4) #11
  store ptr %33, ptr %8, align 8, !tbaa !74
  %34 = load ptr, ptr %8, align 8, !tbaa !74
  %35 = getelementptr inbounds nuw %struct._camctl_camera_job_t, ptr %34, i32 0, i32 0
  store i32 1, ptr %35, align 4, !tbaa !76
  %36 = load ptr, ptr %5, align 8, !tbaa !6
  %37 = load ptr, ptr %7, align 8, !tbaa !21
  %38 = load ptr, ptr %8, align 8, !tbaa !74
  call void @_camera_add_job(ptr noundef %36, ptr noundef %37, ptr noundef %38)
  call void @llvm.lifetime.end.p0(i64 8, ptr %8) #10
  call void @llvm.lifetime.end.p0(i64 8, ptr %7) #10
  store i32 0, ptr %6, align 4
  br label %39

39:                                               ; preds = %31, %30
  call void @llvm.lifetime.end.p0(i64 8, ptr %5) #10
  %40 = load i32, ptr %6, align 4
  switch i32 %40, label %42 [
    i32 0, label %41
    i32 1, label %41
  ]

41:                                               ; preds = %39, %39
  ret void

42:                                               ; preds = %39
  unreachable
}