; Function Attrs: nounwind uwtable
define void @dt_camctl_camera_capture(ptr noundef readonly captures(none) %0, ptr noundef %1) local_unnamed_addr #0 {
  %.not = icmp eq ptr %1, null
  br i1 %.not, label %3, label %11

3:                                                ; preds = %2
  %4 = getelementptr inbounds nuw i8, ptr %0, i64 144
  %5 = load ptr, ptr %4, align 8, !tbaa !6
  %6 = icmp eq ptr %5, null
  br i1 %6, label %7, label %11

7:                                                ; preds = %3
  %8 = load i32, ptr getelementptr inbounds nuw (i8, ptr @darktable, i64 8), align 8, !tbaa !19
  %9 = and i32 %8, 32
  %.not10 = icmp eq i32 %9, 0
  br i1 %.not10, label %19, label %10

10:                                               ; preds = %7
  tail call void (ptr, ...) @dt_print_ext(ptr noundef nonnull @.str.36) #15
  br label %19

11:                                               ; preds = %3, %2
  %.0 = phi ptr [ %1, %2 ], [ %5, %3 ]
  %12 = tail call noalias dereferenceable_or_null(4) ptr @g_malloc(i64 noundef 4) #16
  store i32 1, ptr %12, align 4, !tbaa !70
  %13 = getelementptr inbounds nuw i8, ptr %.0, i64 32888
  %14 = tail call i32 @pthread_mutex_lock(ptr noundef nonnull %13) #15
  %15 = getelementptr inbounds nuw i8, ptr %.0, i64 32928
  %16 = load ptr, ptr %15, align 8, !tbaa !66
  %17 = tail call ptr @g_list_append(ptr noundef %16, ptr noundef nonnull %12) #15
  store ptr %17, ptr %15, align 8, !tbaa !66
  %18 = tail call i32 @pthread_mutex_unlock(ptr noundef nonnull %13) #15
  br label %19

19:                                               ; preds = %7, %10, %11
  ret void
}